target datalayout = "e-m:e-p270:32:32-p271:32:32-p272:64:64-i64:64-i128:128-f80:128-n8:16:32:64-S128"
target triple = "x86_64-pc-linux-gnu"

%"class.llvm::SmallVectorBase.67" = type { ptr, i32, i32 }
%"class.llvm::Twine" = type <{ %"union.llvm::Twine::Child", %"union.llvm::Twine::Child", i8, i8, [6 x i8] }>
%"union.llvm::Twine::Child" = type { %struct.anon }
%struct.anon = type { ptr, i64 }
%"class.llvm::SmallVectorImpl.208" = type { %"class.llvm::SmallVectorTemplateBase.209" }
%"class.llvm::SmallVectorTemplateBase.209" = type { %"class.llvm::SmallVectorTemplateCommon.210" }
%"class.llvm::SmallVectorTemplateCommon.210" = type { %"class.llvm::SmallVectorBase.67" }
%"struct.std::pair" = type { i32, ptr }
%"class.llvm::IRBuilderBase" = type { %"class.llvm::SmallVector.207", ptr, %"class.llvm::ilist_iterator_w_bits", ptr, ptr, ptr, ptr, %"class.llvm::FastMathFlags", i8, i8, i8, %"class.llvm::ArrayRef.213" }
%"class.llvm::SmallVector.207" = type { %"class.llvm::SmallVectorImpl.208", %"struct.llvm::SmallVectorStorage.211" }
%"struct.llvm::SmallVectorStorage.211" = type { [32 x i8] }
%"class.llvm::ilist_iterator_w_bits" = type <{ ptr, i8, i8, [6 x i8] }>
%"class.llvm::FastMathFlags" = type { i32 }
%"class.llvm::ArrayRef.213" = type { ptr, i64 }
%"class.llvm::InsertPosition" = type { %"class.llvm::ilist_iterator_w_bits" }

@.str.4 = private unnamed_addr constant [1 x i8] zeroinitializer, align 1

; Function Attrs: mustprogress nounwind uwtable
define linkonce_odr hidden noundef ptr @_ZNK4llvm25SmallVectorTemplateCommonISt4pairIjPNS_6MDNodeEEvE3endEv(ptr noundef nonnull align 8 dereferenceable(16) %0) #0 comdat align 2 {
  %2 = alloca ptr, align 8
  store ptr %0, ptr %2, align 8
  %3 = load ptr, ptr %2, align 8
  %4 = call noundef ptr @_ZNK4llvm25SmallVectorTemplateCommonISt4pairIjPNS_6MDNodeEEvE5beginEv(ptr noundef nonnull align 8 dereferenceable(16) %3)
  %5 = call noundef i64 @_ZNK4llvm15SmallVectorBaseIjE4sizeEv(ptr noundef nonnull align 8 dereferenceable(16) %3)
  %6 = getelementptr inbounds %"struct.std::pair", ptr %4, i64 %5
  ret ptr %6
}

; Function Attrs: mustprogress nounwind uwtable
define linkonce_odr hidden noundef ptr @_ZNK4llvm25SmallVectorTemplateCommonISt4pairIjPNS_6MDNodeEEvE5beginEv(ptr noundef nonnull align 8 dereferenceable(16) %0) #0 comdat align 2 {
  %2 = alloca ptr, align 8
  store ptr %0, ptr %2, align 8
  %3 = load ptr, ptr %2, align 8
  %4 = getelementptr inbounds nuw %"class.llvm::SmallVectorBase.67", ptr %3, i32 0, i32 0
  %5 = load ptr, ptr %4, align 8
  ret ptr %5
}

; Function Attrs: mustprogress nounwind uwtable
define linkonce_odr hidden void @_ZN4llvm21ilist_iterator_w_bitsINS_12ilist_detail12node_optionsINS_11InstructionELb0ELb0EvLb1ENS_10BasicBlockEEELb0ELb0EEC2Ev(ptr noundef nonnull align 8 dereferenceable(10) %0) unnamed_addr #0 comdat align 2 {
  %2 = alloca ptr, align 8
  store ptr %0, ptr %2, align 8
  %3 = load ptr, ptr %2, align 8
  %4 = getelementptr inbounds nuw %"class.llvm::ilist_iterator_w_bits", ptr %3, i32 0, i32 0
  store ptr null, ptr %4, align 8
  %5 = getelementptr inbounds nuw %"class.llvm::ilist_iterator_w_bits", ptr %3, i32 0, i32 1
  store i8 0, ptr %5, align 8
  %6 = getelementptr inbounds nuw %"class.llvm::ilist_iterator_w_bits", ptr %3, i32 0, i32 2
  store i8 0, ptr %6, align 1
  ret void
}

; Function Attrs: mustprogress nounwind uwtable
define linkonce_odr hidden void @_ZNK4llvm13IRBuilderBase17AddMetadataToInstEPNS_11InstructionE(ptr noundef nonnull align 8 dereferenceable(128) %0, ptr noundef %1) #0 comdat align 2 {
  %3 = alloca ptr, align 8
  %4 = alloca ptr, align 8
  %5 = alloca ptr, align 8
  %6 = alloca ptr, align 8
  %7 = alloca ptr, align 8
  %8 = alloca ptr, align 8
  store ptr %0, ptr %3, align 8
  store ptr %1, ptr %4, align 8
  %9 = load ptr, ptr %3, align 8
  %10 = getelementptr inbounds nuw %"class.llvm::IRBuilderBase", ptr %9, i32 0, i32 0
  store ptr %10, ptr %5, align 8
  %11 = load ptr, ptr %5, align 8
  %12 = call noundef ptr @_ZNK4llvm25SmallVectorTemplateCommonISt4pairIjPNS_6MDNodeEEvE5beginEv(ptr noundef nonnull align 8 dereferenceable(16) %11)
  store ptr %12, ptr %6, align 8
  %13 = load ptr, ptr %5, align 8
  %14 = call noundef ptr @_ZNK4llvm25SmallVectorTemplateCommonISt4pairIjPNS_6MDNodeEEvE3endEv(ptr noundef nonnull align 8 dereferenceable(16) %13)
  store ptr %14, ptr %7, align 8
  br label %15

15:                                               ; preds = %28, %2
  %16 = load ptr, ptr %6, align 8
  %17 = load ptr, ptr %7, align 8
  %18 = icmp ne ptr %16, %17
  br i1 %18, label %19, label %31

19:                                               ; preds = %15
  %20 = load ptr, ptr %6, align 8
  store ptr %20, ptr %8, align 8
  %21 = load ptr, ptr %4, align 8
  %22 = load ptr, ptr %8, align 8
  %23 = getelementptr inbounds nuw %"struct.std::pair", ptr %22, i32 0, i32 0
  %24 = load i32, ptr %23, align 8
  %25 = load ptr, ptr %8, align 8
  %26 = getelementptr inbounds nuw %"struct.std::pair", ptr %25, i32 0, i32 1
  %27 = load ptr, ptr %26, align 8
  call void @_ZN4llvm11Instruction11setMetadataEjPNS_6MDNodeE(ptr noundef nonnull align 8 dereferenceable(72) %21, i32 noundef %24, ptr noundef %27)
  br label %28

28:                                               ; preds = %19
  %29 = load ptr, ptr %6, align 8
  %30 = getelementptr inbounds %"struct.std::pair", ptr %29, i32 1
  store ptr %30, ptr %6, align 8
  br label %15

31:                                               ; preds = %15
  ret void
}

; Function Attrs: mustprogress nounwind uwtable
define linkonce_odr hidden void @_ZN4llvm14InsertPositionC2EDn(ptr noundef nonnull align 8 dereferenceable(16) %0, ptr %1) unnamed_addr #0 comdat align 2 {
  %3 = alloca ptr, align 8
  %4 = alloca ptr, align 8
  store ptr %0, ptr %3, align 8
  store ptr %1, ptr %4, align 8
  %5 = load ptr, ptr %3, align 8
  %6 = getelementptr inbounds nuw %"class.llvm::InsertPosition", ptr %5, i32 0, i32 0
  call void @llvm.memset.p0.i64(ptr align 8 %6, i8 0, i64 16, i1 false)
  call void @_ZN4llvm21ilist_iterator_w_bitsINS_12ilist_detail12node_optionsINS_11InstructionELb0ELb0EvLb1ENS_10BasicBlockEEELb0ELb0EEC2Ev(ptr noundef nonnull align 8 dereferenceable(10) %6) #10
  ret void
}

; Function Attrs: mustprogress nounwind uwtable
define linkonce_odr hidden noundef ptr @_ZNK4llvm13IRBuilderBase6InsertINS_14BinaryOperatorEEEPT_S4_RKNS_5TwineE(ptr noundef nonnull align 8 dereferenceable(128) %0, ptr noundef %1, ptr noundef nonnull align 8 dereferenceable(34) %2) #0 comdat align 2 {
  %4 = alloca ptr, align 8
  %5 = alloca ptr, align 8
  %6 = alloca ptr, align 8
  %7 = alloca %"class.llvm::ilist_iterator_w_bits", align 8
  store ptr %0, ptr %4, align 8
  store ptr %1, ptr %5, align 8
  store ptr %2, ptr %6, align 8
  %8 = load ptr, ptr %4, align 8
  %9 = getelementptr inbounds nuw %"class.llvm::IRBuilderBase", ptr %8, i32 0, i32 5
  %10 = load ptr, ptr %9, align 8
  %11 = load ptr, ptr %5, align 8
  %12 = load ptr, ptr %6, align 8
  %13 = getelementptr inbounds nuw %"class.llvm::IRBuilderBase", ptr %8, i32 0, i32 2
  call void @llvm.memcpy.p0.p0.i64(ptr align 8 %7, ptr align 8 %13, i64 16, i1 false)
  %14 = getelementptr inbounds nuw { ptr, i64 }, ptr %7, i32 0, i32 0
  %15 = load ptr, ptr %14, align 8
  %16 = getelementptr inbounds nuw { ptr, i64 }, ptr %7, i32 0, i32 1
  %17 = load i64, ptr %16, align 8
  %18 = load ptr, ptr %10, align 8
  %19 = getelementptr inbounds ptr, ptr %18, i64 2
  %20 = load ptr, ptr %19, align 8
  call void %20(ptr noundef nonnull align 8 dereferenceable(8) %10, ptr noundef %11, ptr noundef nonnull align 8 dereferenceable(34) %12, ptr %15, i64 %17)
  %21 = load ptr, ptr %5, align 8
  call void @_ZNK4llvm13IRBuilderBase17AddMetadataToInstEPNS_11InstructionE(ptr noundef nonnull align 8 dereferenceable(128) %8, ptr noundef %21)
  %22 = load ptr, ptr %5, align 8
  ret ptr %22
}

; Function Attrs: mustprogress nounwind uwtable
define linkonce_odr hidden noundef ptr @_ZN4llvm14BinaryOperator9CreateAndEPNS_5ValueES2_RKNS_5TwineE(ptr noundef %0, ptr noundef %1, ptr noundef nonnull align 8 dereferenceable(34) %2) #0 comdat align 2 {
  %4 = alloca ptr, align 8
  %5 = alloca ptr, align 8
  %6 = alloca ptr, align 8
  %7 = alloca %"class.llvm::InsertPosition", align 8
  store ptr %0, ptr %4, align 8
  store ptr %1, ptr %5, align 8
  store ptr %2, ptr %6, align 8
  %8 = load ptr, ptr %4, align 8
  %9 = load ptr, ptr %5, align 8
  %10 = load ptr, ptr %6, align 8
  call void @_ZN4llvm14InsertPositionC2EDn(ptr noundef nonnull align 8 dereferenceable(16) %7, ptr null)
  %11 = getelementptr inbounds nuw { ptr, i64 }, ptr %7, i32 0, i32 0
  %12 = load ptr, ptr %11, align 8
  %13 = getelementptr inbounds nuw { ptr, i64 }, ptr %7, i32 0, i32 1
  %14 = load i64, ptr %13, align 8
  %15 = call noundef ptr @_ZN4llvm14BinaryOperator6CreateENS_11Instruction9BinaryOpsEPNS_5ValueES4_RKNS_5TwineENS_14InsertPositionE(i32 noundef 28, ptr noundef %8, ptr noundef %9, ptr noundef nonnull align 8 dereferenceable(34) %10, ptr %12, i64 %14)
  ret ptr %15
}

; Function Attrs: mustprogress nounwind uwtable
define linkonce_odr hidden noundef ptr @_ZN4llvm4wrapEPKNS_5ValueE(ptr noundef %0) #0 comdat {
  %2 = alloca ptr, align 8
  store ptr %0, ptr %2, align 8
  %3 = load ptr, ptr %2, align 8
  ret ptr %3
}

; Function Attrs: mustprogress nounwind uwtable
define linkonce_odr hidden noundef ptr @_ZN4llvm13IRBuilderBase9CreateAndEPNS_5ValueES2_RKNS_5TwineE(ptr noundef nonnull align 8 dereferenceable(128) %0, ptr noundef %1, ptr noundef %2, ptr noundef nonnull align 8 dereferenceable(34) %3) #0 comdat align 2 {
  %5 = alloca ptr, align 8
  %6 = alloca ptr, align 8
  %7 = alloca ptr, align 8
  %8 = alloca ptr, align 8
  %9 = alloca ptr, align 8
  %10 = alloca ptr, align 8
  %11 = alloca %"class.llvm::Twine", align 8
  store ptr %0, ptr %6, align 8
  store ptr %1, ptr %7, align 8
  store ptr %2, ptr %8, align 8
  store ptr %3, ptr %9, align 8
  %12 = load ptr, ptr %6, align 8
  %13 = getelementptr inbounds nuw %"class.llvm::IRBuilderBase", ptr %12, i32 0, i32 4
  %14 = load ptr, ptr %13, align 8
  %15 = load ptr, ptr %7, align 8
  %16 = load ptr, ptr %8, align 8
  %17 = load ptr, ptr %14, align 8
  %18 = getelementptr inbounds ptr, ptr %17, i64 2
  %19 = load ptr, ptr %18, align 8
  %20 = call noundef ptr %19(ptr noundef nonnull align 8 dereferenceable(8) %14, i32 noundef 28, ptr noundef %15, ptr noundef %16)
  store ptr %20, ptr %10, align 8
  %21 = load ptr, ptr %10, align 8
  %22 = icmp ne ptr %21, null
  br i1 %22, label %23, label %25

23:                                               ; preds = %4
  %24 = load ptr, ptr %10, align 8
  store ptr %24, ptr %5, align 8
  br label %31

25:                                               ; preds = %4
  %26 = load ptr, ptr %7, align 8
  %27 = load ptr, ptr %8, align 8
  call void @_ZN4llvm5TwineC2EPKc(ptr noundef nonnull align 8 dereferenceable(34) %11, ptr noundef @.str.4)
  %28 = call noundef ptr @_ZN4llvm14BinaryOperator9CreateAndEPNS_5ValueES2_RKNS_5TwineE(ptr noundef %26, ptr noundef %27, ptr noundef nonnull align 8 dereferenceable(34) %11)
  %29 = load ptr, ptr %9, align 8
  %30 = call noundef ptr @_ZNK4llvm13IRBuilderBase6InsertINS_14BinaryOperatorEEEPT_S4_RKNS_5TwineE(ptr noundef nonnull align 8 dereferenceable(128) %12, ptr noundef %28, ptr noundef nonnull align 8 dereferenceable(34) %29)
  store ptr %30, ptr %5, align 8
  br label %31

31:                                               ; preds = %25, %23
  %32 = load ptr, ptr %5, align 8
  ret ptr %32
}

; Function Attrs: mustprogress nounwind uwtable
define linkonce_odr hidden void @_ZN4llvm5TwineC2EPKc(ptr noundef nonnull align 8 dereferenceable(34) %0, ptr noundef %1) unnamed_addr #0 comdat align 2 {
  %3 = alloca ptr, align 8
  %4 = alloca ptr, align 8
  store ptr %0, ptr %3, align 8
  store ptr %1, ptr %4, align 8
  %5 = load ptr, ptr %3, align 8
  %6 = getelementptr inbounds nuw %"class.llvm::Twine", ptr %5, i32 0, i32 2
  store i8 1, ptr %6, align 8
  %7 = getelementptr inbounds nuw %"class.llvm::Twine", ptr %5, i32 0, i32 3
  store i8 1, ptr %7, align 1
  %8 = load ptr, ptr %4, align 8
  %9 = getelementptr inbounds i8, ptr %8, i64 0
  %10 = load i8, ptr %9, align 1
  %11 = sext i8 %10 to i32
  %12 = icmp ne i32 %11, 0
  br i1 %12, label %13, label %17

13:                                               ; preds = %2
  %14 = load ptr, ptr %4, align 8
  %15 = getelementptr inbounds nuw %"class.llvm::Twine", ptr %5, i32 0, i32 0
  store ptr %14, ptr %15, align 8
  %16 = getelementptr inbounds nuw %"class.llvm::Twine", ptr %5, i32 0, i32 2
  store i8 3, ptr %16, align 8
  br label %19

17:                                               ; preds = %2
  %18 = getelementptr inbounds nuw %"class.llvm::Twine", ptr %5, i32 0, i32 2
  store i8 1, ptr %18, align 8
  br label %19

19:                                               ; preds = %17, %13
  ret void
}

; Function Attrs: mustprogress nounwind uwtable
define linkonce_odr hidden noundef ptr @_ZN4llvm6unwrapEP15LLVMOpaqueValue(ptr noundef %0) #0 comdat {
  %2 = alloca ptr, align 8
  store ptr %0, ptr %2, align 8
  %3 = load ptr, ptr %2, align 8
  ret ptr %3
}

; Function Attrs: mustprogress nounwind uwtable
define linkonce_odr hidden noundef ptr @_ZN4llvm6unwrapEP17LLVMOpaqueBuilder(ptr noundef %0) #0 comdat {
  %2 = alloca ptr, align 8
  store ptr %0, ptr %2, align 8
  %3 = load ptr, ptr %2, align 8
  ret ptr %3
}

; Function Attrs: mustprogress nounwind uwtable
define dso_local ptr @LLVMBuildAnd(ptr noundef %0, ptr noundef %1, ptr noundef %2, ptr noundef %3) #0 {
  %5 = alloca ptr, align 8
  %6 = alloca ptr, align 8
  %7 = alloca ptr, align 8
  %8 = alloca ptr, align 8
  %9 = alloca %"class.llvm::Twine", align 8
  store ptr %0, ptr %5, align 8
  store ptr %1, ptr %6, align 8
  store ptr %2, ptr %7, align 8
  store ptr %3, ptr %8, align 8
  %10 = load ptr, ptr %5, align 8
  %11 = call noundef ptr @_ZN4llvm6unwrapEP17LLVMOpaqueBuilder(ptr noundef %10)
  %12 = load ptr, ptr %6, align 8
  %13 = call noundef ptr @_ZN4llvm6unwrapEP15LLVMOpaqueValue(ptr noundef %12)
  %14 = load ptr, ptr %7, align 8
  %15 = call noundef ptr @_ZN4llvm6unwrapEP15LLVMOpaqueValue(ptr noundef %14)
  %16 = load ptr, ptr %8, align 8
  call void @_ZN4llvm5TwineC2EPKc(ptr noundef nonnull align 8 dereferenceable(34) %9, ptr noundef %16)
  %17 = call noundef ptr @_ZN4llvm13IRBuilderBase9CreateAndEPNS_5ValueES2_RKNS_5TwineE(ptr noundef nonnull align 8 dereferenceable(128) %11, ptr noundef %13, ptr noundef %15, ptr noundef nonnull align 8 dereferenceable(34) %9)
  %18 = call noundef ptr @_ZN4llvm4wrapEPKNS_5ValueE(ptr noundef %17)
  ret ptr %18
}